; Function Attrs: nounwind uwtable
define nonnull ptr @l___private_Lean_Meta_Tactic_Grind_Core_0__Lean_Meta_Grind_isCongrRelevant___boxed(ptr noundef %0) local_unnamed_addr #1 {
  %2 = tail call zeroext i8 @l_Lean_Expr_isApp(ptr noundef %0) #5
  %3 = icmp eq i8 %2, 0
  br i1 %3, label %4, label %l___private_Lean_Meta_Tactic_Grind_Core_0__Lean_Meta_Grind_isCongrRelevant.exit

4:                                                ; preds = %1
  %5 = tail call zeroext i8 @l_Lean_Expr_isArrow(ptr noundef %0) #5
  %6 = zext i8 %5 to i64
  %7 = shl nuw nsw i64 %6, 1
  %8 = or disjoint i64 %7, 1
  br label %l___private_Lean_Meta_Tactic_Grind_Core_0__Lean_Meta_Grind_isCongrRelevant.exit

l___private_Lean_Meta_Tactic_Grind_Core_0__Lean_Meta_Grind_isCongrRelevant.exit: ; preds = %1, %4
  %.0.i = phi i64 [ %8, %4 ], [ 3, %1 ]
  %9 = ptrtoint ptr %0 to i64
  %10 = and i64 %9, 1
  %.not = icmp eq i64 %10, 0
  br i1 %.not, label %11, label %lean_dec.exit

11:                                               ; preds = %l___private_Lean_Meta_Tactic_Grind_Core_0__Lean_Meta_Grind_isCongrRelevant.exit
  %12 = load i32, ptr %0, align 4, !tbaa !8
  %13 = icmp sgt i32 %12, 1
  br i1 %13, label %14, label %16, !prof !13

14:                                               ; preds = %11
  %15 = add nsw i32 %12, -1
  store i32 %15, ptr %0, align 4, !tbaa !8
  br label %lean_dec.exit

16:                                               ; preds = %11
  %.not.i = icmp eq i32 %12, 0
  br i1 %.not.i, label %lean_dec.exit, label %17

17:                                               ; preds = %16
  tail call void @lean_dec_ref_cold(ptr noundef nonnull %0) #5
  br label %lean_dec.exit

lean_dec.exit:                                    ; preds = %17, %16, %14, %l___private_Lean_Meta_Tactic_Grind_Core_0__Lean_Meta_Grind_isCongrRelevant.exit
  %18 = inttoptr i64 %.0.i to ptr
  ret ptr %18
}